target datalayout = "e-m:e-p270:32:32-p271:32:32-p272:64:64-i64:64-i128:128-f80:128-n8:16:32:64-S128"
target triple = "x86_64-unknown-linux-gnu"

%"class.std::basic_string_view" = type { i64, ptr }
%"class.google::protobuf::compiler::cpp::(anonymous namespace)::SingularString" = type { %"class.google::protobuf::compiler::cpp::FieldGeneratorBase.base", ptr, ptr }
%"class.google::protobuf::compiler::cpp::FieldGeneratorBase.base" = type <{ ptr, ptr, ptr, ptr, %"class.absl::lts_20230802::flat_hash_map", i8, i8, i8, i8, i8, i8, i8, i8, i8, i8, i8, i8, i8, [3 x i8], i32, i8 }>
%"class.absl::lts_20230802::flat_hash_map" = type { %"class.absl::lts_20230802::container_internal::raw_hash_map" }
%"class.absl::lts_20230802::container_internal::raw_hash_map" = type { %"class.absl::lts_20230802::container_internal::raw_hash_set.28" }
%"class.absl::lts_20230802::container_internal::raw_hash_set.28" = type { %"class.absl::lts_20230802::container_internal::CompressedTuple.29" }
%"class.absl::lts_20230802::container_internal::CompressedTuple.29" = type { %"struct.absl::lts_20230802::container_internal::internal_compressed_tuple::CompressedTupleImpl.30" }
%"struct.absl::lts_20230802::container_internal::internal_compressed_tuple::CompressedTupleImpl.30" = type { %"struct.absl::lts_20230802::container_internal::internal_compressed_tuple::Storage" }
%"struct.absl::lts_20230802::container_internal::internal_compressed_tuple::Storage" = type { %"class.absl::lts_20230802::container_internal::CommonFields" }
%"class.absl::lts_20230802::container_internal::CommonFields" = type { ptr, ptr, i64, %"class.absl::lts_20230802::container_internal::CompressedTuple.10" }
%"class.absl::lts_20230802::container_internal::CompressedTuple.10" = type { %"struct.absl::lts_20230802::container_internal::internal_compressed_tuple::CompressedTupleImpl.11" }
%"struct.absl::lts_20230802::container_internal::internal_compressed_tuple::CompressedTupleImpl.11" = type { %"struct.absl::lts_20230802::container_internal::internal_compressed_tuple::Storage.12" }
%"struct.absl::lts_20230802::container_internal::internal_compressed_tuple::Storage.12" = type { i64 }
%"class.absl::lts_20230802::Span" = type { ptr, i64 }
%"class.google::protobuf::compiler::cpp::FieldGeneratorBase" = type <{ ptr, ptr, ptr, ptr, %"class.absl::lts_20230802::flat_hash_map", i8, i8, i8, i8, i8, i8, i8, i8, i8, i8, i8, i8, i8, [3 x i8], i32, i8, [3 x i8] }>
%"class.google::protobuf::FieldDescriptor" = type { %"class.google::protobuf::internal::SymbolBase", i8, i8, i8, i32, ptr, ptr, ptr, ptr, %union.anon.43, %union.anon.44, ptr, ptr, ptr, %union.anon.45 }
%"class.google::protobuf::internal::SymbolBase" = type { i8 }
%union.anon.43 = type { ptr }
%union.anon.44 = type { ptr }
%union.anon.45 = type { i64 }

@.str.32 = private unnamed_addr constant [68 x i8] c"\0A      static const $pbi$::LazyString $default_variable_name$;\0A    \00", align 1
@.str.33 = private unnamed_addr constant [56 x i8] c"\0A      static std::true_type _init_inline_$name$_;\0A    \00", align 1

; Function Attrs: mustprogress nounwind uwtable
define linkonce_odr hidden void @_ZN4absl12lts_202308024SpanIKN6google8protobuf2io7Printer3SubEEC2EPS7_m(ptr noundef nonnull align 8 dereferenceable(16) %this, ptr noundef %array, i64 noundef %length) unnamed_addr #5 comdat align 2 {
entry:
  %this.addr = alloca ptr, align 8
  %array.addr = alloca ptr, align 8
  %length.addr = alloca i64, align 8
  store ptr %this, ptr %this.addr, align 8
  store ptr %array, ptr %array.addr, align 8
  store i64 %length, ptr %length.addr, align 8
  %this1 = load ptr, ptr %this.addr, align 8
  %ptr_ = getelementptr inbounds %"class.absl::lts_20230802::Span", ptr %this1, i32 0, i32 0
  %0 = load ptr, ptr %array.addr, align 8
  store ptr %0, ptr %ptr_, align 8
  %len_ = getelementptr inbounds %"class.absl::lts_20230802::Span", ptr %this1, i32 0, i32 1
  %1 = load i64, ptr %length.addr, align 8
  store i64 %1, ptr %len_, align 8
  ret void
}

; Function Attrs: mustprogress nounwind uwtable
define linkonce_odr hidden void @_ZN4absl12lts_202308024SpanIKN6google8protobuf2io7Printer3SubEEC2Ev(ptr noundef nonnull align 8 dereferenceable(16) %this) unnamed_addr #5 comdat align 2 {
entry:
  %this.addr = alloca ptr, align 8
  store ptr %this, ptr %this.addr, align 8
  %this1 = load ptr, ptr %this.addr, align 8
  call void @_ZN4absl12lts_202308024SpanIKN6google8protobuf2io7Printer3SubEEC2EPS7_m(ptr noundef nonnull align 8 dereferenceable(16) %this1, ptr noundef null, i64 noundef 0) #3
  ret void
}

; Function Attrs: noreturn nounwind uwtable
define linkonce_odr hidden void @__clang_call_terminate(ptr noundef %0) #8 comdat {
  %2 = call ptr @__cxa_begin_catch(ptr %0) #3
  call void @_ZSt9terminatev() #22
  unreachable
}

; Function Attrs: mustprogress nounwind uwtable
define linkonce_odr hidden noundef i64 @_ZNSt11char_traitsIcE6lengthEPKc(ptr noundef %__s) #5 comdat align 2 {
entry:
  %__s.addr = alloca ptr, align 8
  store ptr %__s, ptr %__s.addr, align 8
  %0 = load ptr, ptr %__s.addr, align 8
  %call = call i64 @strlen(ptr noundef %0) #3
  ret i64 %call
}

; Function Attrs: mustprogress nounwind uwtable
define linkonce_odr hidden noundef nonnull align 8 dereferenceable(32) ptr @_ZNK6google8protobuf15FieldDescriptor20default_value_stringB5cxx11Ev(ptr noundef nonnull align 8 dereferenceable(88) %this) #5 comdat align 2 {
entry:
  %this.addr = alloca ptr, align 8
  store ptr %this, ptr %this.addr, align 8
  %this1 = load ptr, ptr %this.addr, align 8
  %0 = getelementptr inbounds %"class.google::protobuf::FieldDescriptor", ptr %this1, i32 0, i32 14
  %1 = load ptr, ptr %0, align 8
  ret ptr %1
}

; Function Attrs: mustprogress nounwind uwtable
define linkonce_odr hidden noundef zeroext i1 @_ZNK6google8protobuf8compiler3cpp18FieldGeneratorBase10is_inlinedEv(ptr noundef nonnull align 8 dereferenceable(85) %this) #5 comdat align 2 {
entry:
  %this.addr = alloca ptr, align 8
  store ptr %this, ptr %this.addr, align 8
  %this1 = load ptr, ptr %this.addr, align 8
  %is_inlined_ = getelementptr inbounds %"class.google::protobuf::compiler::cpp::FieldGeneratorBase", ptr %this1, i32 0, i32 13
  %0 = load i8, ptr %is_inlined_, align 8
  %tobool = trunc i8 %0 to i1
  ret i1 %tobool
}

; Function Attrs: mustprogress uwtable
define linkonce_odr hidden void @_ZN6google8protobuf2io7Printer4EmitESt17basic_string_viewIcSt11char_traitsIcEENS2_14SourceLocationE(ptr noundef nonnull align 8 dereferenceable(256) %this, i64 %format.coerce0, ptr %format.coerce1) #4 comdat align 2 {
entry:
  %format = alloca %"class.std::basic_string_view", align 8
  %this.addr = alloca ptr, align 8
  %agg.tmp = alloca %"class.absl::lts_20230802::Span", align 8
  %agg.tmp2 = alloca %"class.std::basic_string_view", align 8
  %0 = getelementptr inbounds { i64, ptr }, ptr %format, i32 0, i32 0
  store i64 %format.coerce0, ptr %0, align 8
  %1 = getelementptr inbounds { i64, ptr }, ptr %format, i32 0, i32 1
  store ptr %format.coerce1, ptr %1, align 8
  store ptr %this, ptr %this.addr, align 8
  %this1 = load ptr, ptr %this.addr, align 8
  call void @_ZN4absl12lts_202308024SpanIKN6google8protobuf2io7Printer3SubEEC2Ev(ptr noundef nonnull align 8 dereferenceable(16) %agg.tmp) #3
  call void @llvm.memcpy.p0.p0.i64(ptr align 8 %agg.tmp2, ptr align 8 %format, i64 16, i1 false)
  %2 = getelementptr inbounds { ptr, i64 }, ptr %agg.tmp, i32 0, i32 0
  %3 = load ptr, ptr %2, align 8
  %4 = getelementptr inbounds { ptr, i64 }, ptr %agg.tmp, i32 0, i32 1
  %5 = load i64, ptr %4, align 8
  %6 = getelementptr inbounds { i64, ptr }, ptr %agg.tmp2, i32 0, i32 0
  %7 = load i64, ptr %6, align 8
  %8 = getelementptr inbounds { i64, ptr }, ptr %agg.tmp2, i32 0, i32 1
  %9 = load ptr, ptr %8, align 8
  call void @_ZN6google8protobuf2io7Printer4EmitEN4absl12lts_202308024SpanIKNS2_3SubEEESt17basic_string_viewIcSt11char_traitsIcEENS2_14SourceLocationE(ptr noundef nonnull align 8 dereferenceable(256) %this1, ptr %3, i64 %5, i64 %7, ptr %9)
  ret void
}

; Function Attrs: mustprogress nounwind uwtable
define linkonce_odr hidden void @_ZN6google8protobuf2io7Printer14SourceLocation7currentEv() #5 comdat align 2 {
entry:
  ret void
}

; Function Attrs: mustprogress nounwind uwtable
define linkonce_odr hidden void @_ZNSt17basic_string_viewIcSt11char_traitsIcEEC2EPKc(ptr noundef nonnull align 8 dereferenceable(16) %this, ptr noundef nonnull %__str) unnamed_addr #5 comdat align 2 personality ptr @__gxx_personality_v0 {
entry:
  %this.addr = alloca ptr, align 8
  %__str.addr = alloca ptr, align 8
  store ptr %this, ptr %this.addr, align 8
  store ptr %__str, ptr %__str.addr, align 8
  %this1 = load ptr, ptr %this.addr, align 8
  %_M_len = getelementptr inbounds %"class.std::basic_string_view", ptr %this1, i32 0, i32 0
  %0 = load ptr, ptr %__str.addr, align 8
  %call = invoke noundef i64 @_ZNSt11char_traitsIcE6lengthEPKc(ptr noundef %0)
          to label %invoke.cont unwind label %terminate.lpad

invoke.cont:                                      ; preds = %entry
  store i64 %call, ptr %_M_len, align 8
  %_M_str = getelementptr inbounds %"class.std::basic_string_view", ptr %this1, i32 0, i32 1
  %1 = load ptr, ptr %__str.addr, align 8
  store ptr %1, ptr %_M_str, align 8
  ret void

terminate.lpad:                                   ; preds = %entry
  %2 = landingpad { ptr, i32 }
          catch ptr null
  %3 = extractvalue { ptr, i32 } %2, 0
  call void @__clang_call_terminate(ptr %3) #22
  unreachable
}

; Function Attrs: mustprogress nounwind uwtable
define internal noundef zeroext i1 @_ZNK6google8protobuf8compiler3cpp12_GLOBAL__N_114SingularString12EmptyDefaultEv(ptr noundef nonnull align 8 dereferenceable(104) %this) #5 align 2 {
entry:
  %this.addr = alloca ptr, align 8
  store ptr %this, ptr %this.addr, align 8
  %this1 = load ptr, ptr %this.addr, align 8
  %field_ = getelementptr inbounds %"class.google::protobuf::compiler::cpp::(anonymous namespace)::SingularString", ptr %this1, i32 0, i32 1
  %0 = load ptr, ptr %field_, align 8
  %call = call noundef nonnull align 8 dereferenceable(32) ptr @_ZNK6google8protobuf15FieldDescriptor20default_value_stringB5cxx11Ev(ptr noundef nonnull align 8 dereferenceable(88) %0)
  %call2 = call noundef zeroext i1 @_ZNKSt7__cxx1112basic_stringIcSt11char_traitsIcESaIcEE5emptyEv(ptr noundef nonnull align 8 dereferenceable(32) %call) #3
  ret i1 %call2
}

; Function Attrs: mustprogress uwtable
define internal void @_ZNK6google8protobuf8compiler3cpp12_GLOBAL__N_114SingularString21GenerateStaticMembersEPNS0_2io7PrinterE(ptr noundef nonnull align 8 dereferenceable(104) %this, ptr noundef %p) unnamed_addr #4 align 2 {
entry:
  %this.addr = alloca ptr, align 8
  %p.addr = alloca ptr, align 8
  %agg.tmp = alloca %"class.std::basic_string_view", align 8
  %agg.tmp5 = alloca %"class.std::basic_string_view", align 8
  store ptr %this, ptr %this.addr, align 8
  store ptr %p, ptr %p.addr, align 8
  %this1 = load ptr, ptr %this.addr, align 8
  %call = call noundef zeroext i1 @_ZNK6google8protobuf8compiler3cpp12_GLOBAL__N_114SingularString12EmptyDefaultEv(ptr noundef nonnull align 8 dereferenceable(104) %this1)
  br i1 %call, label %if.end, label %if.then

if.then:                                          ; preds = %entry
  %0 = load ptr, ptr %p.addr, align 8
  call void @_ZNSt17basic_string_viewIcSt11char_traitsIcEEC2EPKc(ptr noundef nonnull align 8 dereferenceable(16) %agg.tmp, ptr noundef @.str.32) #3
  call void @_ZN6google8protobuf2io7Printer14SourceLocation7currentEv()
  %1 = getelementptr inbounds { i64, ptr }, ptr %agg.tmp, i32 0, i32 0
  %2 = load i64, ptr %1, align 8
  %3 = getelementptr inbounds { i64, ptr }, ptr %agg.tmp, i32 0, i32 1
  %4 = load ptr, ptr %3, align 8
  call void @_ZN6google8protobuf2io7Printer4EmitESt17basic_string_viewIcSt11char_traitsIcEENS2_14SourceLocationE(ptr noundef nonnull align 8 dereferenceable(256) %0, i64 %2, ptr %4)
  br label %if.end

if.end:                                           ; preds = %if.then, %entry
  %call3 = call noundef zeroext i1 @_ZNK6google8protobuf8compiler3cpp18FieldGeneratorBase10is_inlinedEv(ptr noundef nonnull align 8 dereferenceable(85) %this1)
  br i1 %call3, label %if.then4, label %if.end8

if.then4:                                         ; preds = %if.end
  %5 = load ptr, ptr %p.addr, align 8
  call void @_ZNSt17basic_string_viewIcSt11char_traitsIcEEC2EPKc(ptr noundef nonnull align 8 dereferenceable(16) %agg.tmp5, ptr noundef @.str.33) #3
  call void @_ZN6google8protobuf2io7Printer14SourceLocation7currentEv()
  %6 = getelementptr inbounds { i64, ptr }, ptr %agg.tmp5, i32 0, i32 0
  %7 = load i64, ptr %6, align 8
  %8 = getelementptr inbounds { i64, ptr }, ptr %agg.tmp5, i32 0, i32 1
  %9 = load ptr, ptr %8, align 8
  call void @_ZN6google8protobuf2io7Printer4EmitESt17basic_string_viewIcSt11char_traitsIcEENS2_14SourceLocationE(ptr noundef nonnull align 8 dereferenceable(256) %5, i64 %7, ptr %9)
  br label %if.end8

if.end8:                                          ; preds = %if.then4, %if.end
  ret void
}